; Function Attrs: mustprogress nofree norecurse nosync nounwind ssp willreturn memory(argmem: readwrite) uwtable
define internal void @_ZN6open3d4core6kernelL26CPULogicalXorElementKernelIhhEEvPKvS4_Pv(ptr noundef readonly captures(none) %0, ptr noundef readonly captures(none) %1, ptr noundef writeonly captures(none) initializes((0, 1)) %2) #15 {
  %4 = load i8, ptr %0, align 1, !tbaa !13
  %5 = icmp ne i8 %4, 0
  %6 = load i8, ptr %1, align 1, !tbaa !13
  %7 = icmp ne i8 %6, 0
  %8 = xor i1 %5, %7
  %9 = zext i1 %8 to i8
  store i8 %9, ptr %2, align 1, !tbaa !13
  ret void
}